; Function Attrs: mustprogress uwtable
define hidden void @_ZN4lean2ir10to_ir_declERKNS_16elab_environmentERKNS_8pair_refINS_4nameENS_4exprEEE(ptr dead_on_unwind noalias writable sret(%"class.lean::object_ref") align 8 %0, ptr noundef nonnull align 8 dereferenceable(8) %1, ptr noundef nonnull align 8 dereferenceable(8) %2) local_unnamed_addr #0 personality ptr @__gxx_personality_v0 {
  %4 = alloca %"class.lean::to_ir_fn", align 8
  call void @llvm.lifetime.start.p0(i64 424, ptr nonnull %4) #22
  call void @_ZN4lean8to_ir_fnC2ERKNS_16elab_environmentE(ptr noundef nonnull align 8 dereferenceable(420) %4, ptr noundef nonnull align 8 dereferenceable(8) %1)
  invoke void @_ZN4lean8to_ir_fn10to_ir_declERKNS_8pair_refINS_4nameENS_4exprEEE(ptr dead_on_unwind writable sret(%"class.lean::object_ref") align 8 %0, ptr noundef nonnull align 8 dereferenceable(420) %4, ptr noundef nonnull align 8 dereferenceable(8) %2)
          to label %_ZN4lean8to_ir_fnclERKNS_8pair_refINS_4nameENS_4exprEEE.exit unwind label %5

_ZN4lean8to_ir_fnclERKNS_8pair_refINS_4nameENS_4exprEEE.exit: ; preds = %3
  call void @_ZN4lean8to_ir_fnD2Ev(ptr noundef nonnull align 8 dereferenceable(420) %4) #22
  call void @llvm.lifetime.end.p0(i64 424, ptr nonnull %4) #22
  ret void

5:                                                ; preds = %3
  %6 = landingpad { ptr, i32 }
          cleanup
  call void @_ZN4lean8to_ir_fnD2Ev(ptr noundef nonnull align 8 dereferenceable(420) %4) #22
  call void @llvm.lifetime.end.p0(i64 424, ptr nonnull %4) #22
  resume { ptr, i32 } %6
}